target datalayout = "e-m:e-p270:32:32-p271:32:32-p272:64:64-i64:64-i128:128-f80:128-n8:16:32:64-S128"
target triple = "x86_64-pc-linux-gnu"

%struct.prof_cnt_s = type { i64, i64, i64, i64, i64, i64, i64, i64 }
%struct.prof_tdata_s = type { ptr, i64, i64, %struct.anon.0, i64, %struct.ckh_t, [16 x i8], i8, i8, i8, i8, i8, i8, i8, %struct.prof_cnt_s, ptr }
%struct.anon.0 = type { ptr, ptr }
%struct.ckh_t = type { i64, i64, i32, i32, ptr, ptr, ptr }

; Function Attrs: alwaysinline nounwind uwtable
define internal void @prof_thread_name_assert(ptr noundef %0) #1 {
  %2 = alloca ptr, align 8
  store ptr %0, ptr %2, align 8, !tbaa !67
  ret void
}

; Function Attrs: nounwind uwtable
define hidden ptr @je_prof_tdata_reinit(ptr noundef %0, ptr noundef %1) #0 {
  %3 = alloca ptr, align 8
  %4 = alloca ptr, align 8
  %5 = alloca i64, align 8
  %6 = alloca i64, align 8
  %7 = alloca i8, align 1
  %8 = alloca [16 x i8], align 16
  store ptr %0, ptr %3, align 8, !tbaa !4
  store ptr %1, ptr %4, align 8, !tbaa !67
  call void @llvm.lifetime.start.p0(i64 8, ptr %5) #11
  %9 = load ptr, ptr %4, align 8, !tbaa !67
  %10 = getelementptr inbounds nuw %struct.prof_tdata_s, ptr %9, i32 0, i32 1
  %11 = load i64, ptr %10, align 8, !tbaa !80
  store i64 %11, ptr %5, align 8, !tbaa !31
  call void @llvm.lifetime.start.p0(i64 8, ptr %6) #11
  %12 = load ptr, ptr %4, align 8, !tbaa !67
  %13 = getelementptr inbounds nuw %struct.prof_tdata_s, ptr %12, i32 0, i32 2
  %14 = load i64, ptr %13, align 8, !tbaa !81
  %15 = add i64 %14, 1
  store i64 %15, ptr %6, align 8, !tbaa !31
  call void @llvm.lifetime.start.p0(i64 1, ptr %7) #11
  %16 = load ptr, ptr %4, align 8, !tbaa !67
  %17 = getelementptr inbounds nuw %struct.prof_tdata_s, ptr %16, i32 0, i32 11
  %18 = load i8, ptr %17, align 4, !tbaa !82, !range !33, !noundef !34
  %19 = trunc i8 %18 to i1
  %20 = zext i1 %19 to i8
  store i8 %20, ptr %7, align 1, !tbaa !32
  %21 = load ptr, ptr %4, align 8, !tbaa !67
  call void @prof_thread_name_assert(ptr noundef %21)
  call void @llvm.lifetime.start.p0(i64 16, ptr %8) #11
  %22 = getelementptr inbounds [16 x i8], ptr %8, i64 0, i64 0
  %23 = load ptr, ptr %4, align 8, !tbaa !67
  %24 = getelementptr inbounds nuw %struct.prof_tdata_s, ptr %23, i32 0, i32 6
  %25 = getelementptr inbounds [16 x i8], ptr %24, i64 0, i64 0
  %26 = call ptr @strncpy(ptr noundef %22, ptr noundef %25, i64 noundef 16) #11
  %27 = load ptr, ptr %3, align 8, !tbaa !4
  %28 = load ptr, ptr %4, align 8, !tbaa !67
  call void @je_prof_tdata_detach(ptr noundef %27, ptr noundef %28)
  %29 = load ptr, ptr %3, align 8, !tbaa !4
  %30 = load i64, ptr %5, align 8, !tbaa !31
  %31 = load i64, ptr %6, align 8, !tbaa !31
  %32 = getelementptr inbounds [16 x i8], ptr %8, i64 0, i64 0
  %33 = load i8, ptr %7, align 1, !tbaa !32, !range !33, !noundef !34
  %34 = trunc i8 %33 to i1
  %35 = call ptr @je_prof_tdata_init_impl(ptr noundef %29, i64 noundef %30, i64 noundef %31, ptr noundef %32, i1 noundef zeroext %34)
  call void @llvm.lifetime.end.p0(i64 16, ptr %8) #11
  call void @llvm.lifetime.end.p0(i64 1, ptr %7) #11
  call void @llvm.lifetime.end.p0(i64 8, ptr %6) #11
  call void @llvm.lifetime.end.p0(i64 8, ptr %5) #11
  ret ptr %35
}